; Function Attrs: mustprogress nofree nounwind willreturn uwtable
define noalias noundef ptr @_ZN10duckdb_hll9sdsnewlenEPKvm(ptr noundef readonly captures(address_is_null) %0, i64 noundef %1) local_unnamed_addr #0 {
  %3 = icmp ult i64 %1, 32
  br i1 %3, label %_ZN10duckdb_hllL10sdsReqTypeEm.exit, label %4

4:                                                ; preds = %2
  %5 = icmp ult i64 %1, 256
  br i1 %5, label %_ZN10duckdb_hllL10sdsReqTypeEm.exit, label %6

6:                                                ; preds = %4
  %7 = icmp ult i64 %1, 65536
  br i1 %7, label %_ZN10duckdb_hllL10sdsReqTypeEm.exit, label %8

8:                                                ; preds = %6
  %9 = icmp ult i64 %1, 4294967296
  %..i = select i1 %9, i8 3, i8 4
  br label %_ZN10duckdb_hllL10sdsReqTypeEm.exit

_ZN10duckdb_hllL10sdsReqTypeEm.exit:              ; preds = %2, %4, %6, %8
  %.0.i = phi i8 [ 0, %2 ], [ 1, %4 ], [ 2, %6 ], [ %..i, %8 ]
  %10 = icmp eq i8 %.0.i, 0
  %11 = icmp eq i64 %1, 0
  %or.cond = and i1 %11, %10
  %spec.store.select = select i1 %or.cond, i8 1, i8 %.0.i
  %12 = zext nneg i8 %spec.store.select to i64
  %switch.gep = getelementptr inbounds nuw [5 x i64], ptr @switch.table._ZN10duckdb_hll11sdssplitlenEPKclS1_iPi.2, i64 0, i64 %12
  %switch.load = load i64, ptr %switch.gep, align 8
  %13 = add i64 %1, 1
  %14 = add i64 %13, %switch.load
  %15 = tail call noalias ptr @malloc(i64 noundef %14) #28
  %16 = icmp ne ptr %0, null
  br i1 %16, label %18, label %17

default.unreachable62:                            ; preds = %20
  unreachable

17:                                               ; preds = %_ZN10duckdb_hllL10sdsReqTypeEm.exit
  tail call void @llvm.memset.p0.i64(ptr align 1 %15, i8 0, i64 %14, i1 false)
  br label %18

18:                                               ; preds = %17, %_ZN10duckdb_hllL10sdsReqTypeEm.exit
  %19 = icmp eq ptr %15, null
  br i1 %19, label %45, label %20

20:                                               ; preds = %18
  %21 = getelementptr inbounds nuw i8, ptr %15, i64 %switch.load
  %22 = getelementptr inbounds i8, ptr %21, i64 -1
  switch i8 %spec.store.select, label %default.unreachable62 [
    i8 0, label %23
    i8 1, label %25
    i8 2, label %29
    i8 3, label %33
    i8 4, label %37
  ]

23:                                               ; preds = %20
  %.tr = trunc i64 %1 to i8
  %24 = shl i8 %.tr, 3
  br label %40

25:                                               ; preds = %20
  %26 = getelementptr inbounds i8, ptr %21, i64 -4
  %27 = trunc i64 %1 to i8
  store i8 %27, ptr %26, align 1, !tbaa !3
  %28 = getelementptr inbounds i8, ptr %21, i64 -3
  store i8 %27, ptr %28, align 1, !tbaa !7
  br label %40

29:                                               ; preds = %20
  %30 = getelementptr inbounds i8, ptr %21, i64 -6
  %31 = trunc i64 %1 to i16
  store i16 %31, ptr %30, align 1, !tbaa !8
  %32 = getelementptr inbounds i8, ptr %21, i64 -4
  store i16 %31, ptr %32, align 1, !tbaa !11
  br label %40

33:                                               ; preds = %20
  %34 = getelementptr inbounds i8, ptr %21, i64 -10
  %35 = trunc i64 %1 to i32
  store i32 %35, ptr %34, align 1, !tbaa !12
  %36 = getelementptr inbounds i8, ptr %21, i64 -6
  store i32 %35, ptr %36, align 1, !tbaa !15
  br label %40

37:                                               ; preds = %20
  %38 = getelementptr inbounds i8, ptr %21, i64 -18
  store i64 %1, ptr %38, align 1, !tbaa !16
  %39 = getelementptr inbounds i8, ptr %21, i64 -10
  store i64 %1, ptr %39, align 1, !tbaa !19
  br label %40

40:                                               ; preds = %37, %33, %29, %25, %23
  %.sink = phi i8 [ 4, %37 ], [ 3, %33 ], [ 2, %29 ], [ 1, %25 ], [ %24, %23 ]
  store i8 %.sink, ptr %22, align 1, !tbaa !20
  %41 = icmp ne i64 %1, 0
  %or.cond3 = and i1 %16, %41
  br i1 %or.cond3, label %42, label %43

42:                                               ; preds = %40
  tail call void @llvm.memcpy.p0.p0.i64(ptr nonnull align 1 %21, ptr nonnull align 1 %0, i64 %1, i1 false)
  br label %43

43:                                               ; preds = %42, %40
  %44 = getelementptr inbounds nuw i8, ptr %21, i64 %1
  store i8 0, ptr %44, align 1, !tbaa !20
  br label %45

45:                                               ; preds = %18, %43
  %.0 = phi ptr [ %21, %43 ], [ null, %18 ]
  ret ptr %.0
}